target datalayout = "e-m:e-p270:32:32-p271:32:32-p272:64:64-i64:64-i128:128-f80:128-n8:16:32:64-S128"
target triple = "x86_64-pc-linux-gnu"

%struct.CVodeMemRec = type { double, ptr, ptr, i32, i32, i32, double, double, ptr, i32, ptr, ptr, i32, ptr, i32, i32, double, double, ptr, i32, i32, i32, ptr, ptr, ptr, i32, i32, ptr, ptr, ptr, i32, double, i32, i32, double, ptr, ptr, i32, ptr, ptr, i32, i32, i32, double, ptr, ptr, [13 x ptr], ptr, ptr, ptr, ptr, ptr, [13 x ptr], ptr, ptr, ptr, ptr, [13 x ptr], ptr, ptr, ptr, ptr, ptr, i32, [13 x ptr], ptr, ptr, ptr, ptr, ptr, i32, double, i32, i32, i32, i32, i32, double, double, double, double, double, double, double, double, [14 x double], [6 x double], [13 x double], double, double, double, double, double, double, double, double, double, double, double, i32, ptr, i32, i64, i32, i32, i32, i32, i32, double, double, double, i64, i64, i64, i64, i64, i64, i64, i64, i64, ptr, i64, i64, ptr, i64, i64, i64, i64, i64, i64, i32, i64, i64, i64, i64, i64, i64, double, double, double, ptr, ptr, ptr, ptr, ptr, i32, i32, i64, double, double, double, i32, double, i32, i32, i32, i32, i32, i32, i32, i32, i32, i32, i32, i32, i32, i32, i32, i32, ptr, ptr, ptr, i32, [6 x [4 x double]], i32, i64, ptr, i32, ptr, ptr, double, double, double, ptr, ptr, ptr, double, double, i32, i32, i64, ptr, i32, i32, ptr, i32 }
%struct.CVDlsMemRec = type { i32, i64, i64, i64, i64, i32, ptr, ptr, ptr, ptr, ptr, ptr, ptr, i64, i64, i64, i64 }

@.str = private unnamed_addr constant [8 x i8] c"CVSBAND\00", align 1
@.str.9 = private unnamed_addr constant [12 x i8] c"cvBandSetup\00", align 1
@.str.10 = private unnamed_addr constant [56 x i8] c"The Jacobian routine failed in an unrecoverable manner.\00", align 1

; Function Attrs: nounwind uwtable
define internal i32 @cvBandSetup(ptr noundef %0, i32 noundef %1, ptr noundef %2, ptr noundef %3, ptr noundef %4, ptr noundef %5, ptr noundef %6, ptr noundef %7) #0 {
  %9 = alloca i32, align 4
  %10 = alloca ptr, align 8
  %11 = alloca i32, align 4
  %12 = alloca ptr, align 8
  %13 = alloca ptr, align 8
  %14 = alloca ptr, align 8
  %15 = alloca ptr, align 8
  %16 = alloca ptr, align 8
  %17 = alloca ptr, align 8
  %18 = alloca ptr, align 8
  %19 = alloca i32, align 4
  %20 = alloca i32, align 4
  %21 = alloca double, align 8
  %22 = alloca i32, align 4
  %23 = alloca i64, align 8
  %24 = alloca i32, align 4
  store ptr %0, ptr %10, align 8, !tbaa !9
  store i32 %1, ptr %11, align 4, !tbaa !53
  store ptr %2, ptr %12, align 8, !tbaa !54
  store ptr %3, ptr %13, align 8, !tbaa !54
  store ptr %4, ptr %14, align 8, !tbaa !55
  store ptr %5, ptr %15, align 8, !tbaa !54
  store ptr %6, ptr %16, align 8, !tbaa !54
  store ptr %7, ptr %17, align 8, !tbaa !54
  call void @llvm.lifetime.start.p0(i64 8, ptr %18) #5
  call void @llvm.lifetime.start.p0(i64 4, ptr %19) #5
  call void @llvm.lifetime.start.p0(i64 4, ptr %20) #5
  call void @llvm.lifetime.start.p0(i64 8, ptr %21) #5
  call void @llvm.lifetime.start.p0(i64 4, ptr %22) #5
  call void @llvm.lifetime.start.p0(i64 8, ptr %23) #5
  %25 = load ptr, ptr %10, align 8, !tbaa !9
  %26 = getelementptr inbounds nuw %struct.CVodeMemRec, ptr %25, i32 0, i32 144
  %27 = load ptr, ptr %26, align 8, !tbaa !48
  store ptr %27, ptr %18, align 8, !tbaa !31
  %28 = load ptr, ptr %10, align 8, !tbaa !9
  %29 = getelementptr inbounds nuw %struct.CVodeMemRec, ptr %28, i32 0, i32 89
  %30 = load double, ptr %29, align 8, !tbaa !56
  %31 = load ptr, ptr %10, align 8, !tbaa !9
  %32 = getelementptr inbounds nuw %struct.CVodeMemRec, ptr %31, i32 0, i32 90
  %33 = load double, ptr %32, align 8, !tbaa !57
  %34 = fdiv double %30, %33
  %35 = fsub double %34, 1.000000e+00
  %36 = call double @SUNRabs(double noundef %35)
  store double %36, ptr %21, align 8, !tbaa !58
  %37 = load ptr, ptr %10, align 8, !tbaa !9
  %38 = getelementptr inbounds nuw %struct.CVodeMemRec, ptr %37, i32 0, i32 111
  %39 = load i64, ptr %38, align 8, !tbaa !59
  %40 = icmp eq i64 %39, 0
  br i1 %40, label %59, label %41

41:                                               ; preds = %8
  %42 = load ptr, ptr %10, align 8, !tbaa !9
  %43 = getelementptr inbounds nuw %struct.CVodeMemRec, ptr %42, i32 0, i32 111
  %44 = load i64, ptr %43, align 8, !tbaa !59
  %45 = load ptr, ptr %18, align 8, !tbaa !31
  %46 = getelementptr inbounds nuw %struct.CVDlsMemRec, ptr %45, i32 0, i32 13
  %47 = load i64, ptr %46, align 8, !tbaa !51
  %48 = add nsw i64 %47, 50
  %49 = icmp sgt i64 %44, %48
  br i1 %49, label %59, label %50

50:                                               ; preds = %41
  %51 = load i32, ptr %11, align 4, !tbaa !53
  %52 = icmp eq i32 %51, 1
  br i1 %52, label %53, label %56

53:                                               ; preds = %50
  %54 = load double, ptr %21, align 8, !tbaa !58
  %55 = fcmp olt double %54, 2.000000e-01
  br i1 %55, label %59, label %56

56:                                               ; preds = %53, %50
  %57 = load i32, ptr %11, align 4, !tbaa !53
  %58 = icmp eq i32 %57, 2
  br label %59

59:                                               ; preds = %56, %53, %41, %8
  %60 = phi i1 [ true, %53 ], [ true, %41 ], [ true, %8 ], [ %58, %56 ]
  %61 = zext i1 %60 to i32
  store i32 %61, ptr %19, align 4, !tbaa !53
  %62 = load i32, ptr %19, align 4, !tbaa !53
  %63 = icmp ne i32 %62, 0
  %64 = xor i1 %63, true
  %65 = zext i1 %64 to i32
  store i32 %65, ptr %20, align 4, !tbaa !53
  %66 = load i32, ptr %20, align 4, !tbaa !53
  %67 = icmp ne i32 %66, 0
  br i1 %67, label %68, label %82

68:                                               ; preds = %59
  %69 = load ptr, ptr %14, align 8, !tbaa !55
  store i32 0, ptr %69, align 4, !tbaa !53
  %70 = load ptr, ptr %18, align 8, !tbaa !31
  %71 = getelementptr inbounds nuw %struct.CVDlsMemRec, ptr %70, i32 0, i32 10
  %72 = load ptr, ptr %71, align 8, !tbaa !46
  %73 = load ptr, ptr %18, align 8, !tbaa !31
  %74 = getelementptr inbounds nuw %struct.CVDlsMemRec, ptr %73, i32 0, i32 9
  %75 = load ptr, ptr %74, align 8, !tbaa !45
  %76 = load ptr, ptr %18, align 8, !tbaa !31
  %77 = getelementptr inbounds nuw %struct.CVDlsMemRec, ptr %76, i32 0, i32 3
  %78 = load i64, ptr %77, align 8, !tbaa !43
  %79 = load ptr, ptr %18, align 8, !tbaa !31
  %80 = getelementptr inbounds nuw %struct.CVDlsMemRec, ptr %79, i32 0, i32 2
  %81 = load i64, ptr %80, align 8, !tbaa !42
  call void @BandCopy(ptr noundef %72, ptr noundef %75, i64 noundef %78, i64 noundef %81)
  br label %148

82:                                               ; preds = %59
  %83 = load ptr, ptr %18, align 8, !tbaa !31
  %84 = getelementptr inbounds nuw %struct.CVDlsMemRec, ptr %83, i32 0, i32 14
  %85 = load i64, ptr %84, align 8, !tbaa !49
  %86 = add nsw i64 %85, 1
  store i64 %86, ptr %84, align 8, !tbaa !49
  %87 = load ptr, ptr %10, align 8, !tbaa !9
  %88 = getelementptr inbounds nuw %struct.CVodeMemRec, ptr %87, i32 0, i32 111
  %89 = load i64, ptr %88, align 8, !tbaa !59
  %90 = load ptr, ptr %18, align 8, !tbaa !31
  %91 = getelementptr inbounds nuw %struct.CVDlsMemRec, ptr %90, i32 0, i32 13
  store i64 %89, ptr %91, align 8, !tbaa !51
  %92 = load ptr, ptr %14, align 8, !tbaa !55
  store i32 1, ptr %92, align 4, !tbaa !53
  %93 = load ptr, ptr %18, align 8, !tbaa !31
  %94 = getelementptr inbounds nuw %struct.CVDlsMemRec, ptr %93, i32 0, i32 9
  %95 = load ptr, ptr %94, align 8, !tbaa !45
  call void @SetToZero(ptr noundef %95)
  %96 = load ptr, ptr %18, align 8, !tbaa !31
  %97 = getelementptr inbounds nuw %struct.CVDlsMemRec, ptr %96, i32 0, i32 7
  %98 = load ptr, ptr %97, align 8, !tbaa !37
  %99 = load ptr, ptr %18, align 8, !tbaa !31
  %100 = getelementptr inbounds nuw %struct.CVDlsMemRec, ptr %99, i32 0, i32 1
  %101 = load i64, ptr %100, align 8, !tbaa !41
  %102 = load ptr, ptr %18, align 8, !tbaa !31
  %103 = getelementptr inbounds nuw %struct.CVDlsMemRec, ptr %102, i32 0, i32 3
  %104 = load i64, ptr %103, align 8, !tbaa !43
  %105 = load ptr, ptr %18, align 8, !tbaa !31
  %106 = getelementptr inbounds nuw %struct.CVDlsMemRec, ptr %105, i32 0, i32 2
  %107 = load i64, ptr %106, align 8, !tbaa !42
  %108 = load ptr, ptr %10, align 8, !tbaa !9
  %109 = getelementptr inbounds nuw %struct.CVodeMemRec, ptr %108, i32 0, i32 83
  %110 = load double, ptr %109, align 8, !tbaa !60
  %111 = load ptr, ptr %12, align 8, !tbaa !54
  %112 = load ptr, ptr %13, align 8, !tbaa !54
  %113 = load ptr, ptr %18, align 8, !tbaa !31
  %114 = getelementptr inbounds nuw %struct.CVDlsMemRec, ptr %113, i32 0, i32 9
  %115 = load ptr, ptr %114, align 8, !tbaa !45
  %116 = load ptr, ptr %18, align 8, !tbaa !31
  %117 = getelementptr inbounds nuw %struct.CVDlsMemRec, ptr %116, i32 0, i32 8
  %118 = load ptr, ptr %117, align 8, !tbaa !38
  %119 = load ptr, ptr %15, align 8, !tbaa !54
  %120 = load ptr, ptr %16, align 8, !tbaa !54
  %121 = load ptr, ptr %17, align 8, !tbaa !54
  %122 = call i32 %98(i64 noundef %101, i64 noundef %104, i64 noundef %107, double noundef %110, ptr noundef %111, ptr noundef %112, ptr noundef %115, ptr noundef %118, ptr noundef %119, ptr noundef %120, ptr noundef %121)
  store i32 %122, ptr %22, align 4, !tbaa !53
  %123 = load i32, ptr %22, align 4, !tbaa !53
  %124 = icmp slt i32 %123, 0
  br i1 %124, label %125, label %129

125:                                              ; preds = %82
  %126 = load ptr, ptr %10, align 8, !tbaa !9
  call void (ptr, i32, ptr, ptr, ptr, ...) @cvProcessError(ptr noundef %126, i32 noundef -5, ptr noundef @.str, ptr noundef @.str.9, ptr noundef @.str.10)
  %127 = load ptr, ptr %18, align 8, !tbaa !31
  %128 = getelementptr inbounds nuw %struct.CVDlsMemRec, ptr %127, i32 0, i32 16
  store i64 -5, ptr %128, align 8, !tbaa !39
  store i32 -1, ptr %9, align 4
  store i32 1, ptr %24, align 4
  br label %175

129:                                              ; preds = %82
  %130 = load i32, ptr %22, align 4, !tbaa !53
  %131 = icmp sgt i32 %130, 0
  br i1 %131, label %132, label %135

132:                                              ; preds = %129
  %133 = load ptr, ptr %18, align 8, !tbaa !31
  %134 = getelementptr inbounds nuw %struct.CVDlsMemRec, ptr %133, i32 0, i32 16
  store i64 -6, ptr %134, align 8, !tbaa !39
  store i32 1, ptr %9, align 4
  store i32 1, ptr %24, align 4
  br label %175

135:                                              ; preds = %129
  %136 = load ptr, ptr %18, align 8, !tbaa !31
  %137 = getelementptr inbounds nuw %struct.CVDlsMemRec, ptr %136, i32 0, i32 9
  %138 = load ptr, ptr %137, align 8, !tbaa !45
  %139 = load ptr, ptr %18, align 8, !tbaa !31
  %140 = getelementptr inbounds nuw %struct.CVDlsMemRec, ptr %139, i32 0, i32 10
  %141 = load ptr, ptr %140, align 8, !tbaa !46
  %142 = load ptr, ptr %18, align 8, !tbaa !31
  %143 = getelementptr inbounds nuw %struct.CVDlsMemRec, ptr %142, i32 0, i32 3
  %144 = load i64, ptr %143, align 8, !tbaa !43
  %145 = load ptr, ptr %18, align 8, !tbaa !31
  %146 = getelementptr inbounds nuw %struct.CVDlsMemRec, ptr %145, i32 0, i32 2
  %147 = load i64, ptr %146, align 8, !tbaa !42
  call void @BandCopy(ptr noundef %138, ptr noundef %141, i64 noundef %144, i64 noundef %147)
  br label %148

148:                                              ; preds = %135, %68
  %149 = load ptr, ptr %10, align 8, !tbaa !9
  %150 = getelementptr inbounds nuw %struct.CVodeMemRec, ptr %149, i32 0, i32 89
  %151 = load double, ptr %150, align 8, !tbaa !56
  %152 = fneg double %151
  %153 = load ptr, ptr %18, align 8, !tbaa !31
  %154 = getelementptr inbounds nuw %struct.CVDlsMemRec, ptr %153, i32 0, i32 9
  %155 = load ptr, ptr %154, align 8, !tbaa !45
  call void @BandScale(double noundef %152, ptr noundef %155)
  %156 = load ptr, ptr %18, align 8, !tbaa !31
  %157 = getelementptr inbounds nuw %struct.CVDlsMemRec, ptr %156, i32 0, i32 9
  %158 = load ptr, ptr %157, align 8, !tbaa !45
  call void @AddIdentity(ptr noundef %158)
  %159 = load ptr, ptr %18, align 8, !tbaa !31
  %160 = getelementptr inbounds nuw %struct.CVDlsMemRec, ptr %159, i32 0, i32 9
  %161 = load ptr, ptr %160, align 8, !tbaa !45
  %162 = load ptr, ptr %18, align 8, !tbaa !31
  %163 = getelementptr inbounds nuw %struct.CVDlsMemRec, ptr %162, i32 0, i32 12
  %164 = load ptr, ptr %163, align 8, !tbaa !47
  %165 = call i64 @BandGBTRF(ptr noundef %161, ptr noundef %164)
  store i64 %165, ptr %23, align 8, !tbaa !7
  %166 = load i64, ptr %23, align 8, !tbaa !7
  %167 = icmp sgt i64 %166, 0
  br i1 %167, label %168, label %172

168:                                              ; preds = %148
  %169 = load i64, ptr %23, align 8, !tbaa !7
  %170 = load ptr, ptr %18, align 8, !tbaa !31
  %171 = getelementptr inbounds nuw %struct.CVDlsMemRec, ptr %170, i32 0, i32 16
  store i64 %169, ptr %171, align 8, !tbaa !39
  store i32 1, ptr %9, align 4
  store i32 1, ptr %24, align 4
  br label %175

172:                                              ; preds = %148
  %173 = load ptr, ptr %18, align 8, !tbaa !31
  %174 = getelementptr inbounds nuw %struct.CVDlsMemRec, ptr %173, i32 0, i32 16
  store i64 0, ptr %174, align 8, !tbaa !39
  store i32 0, ptr %9, align 4
  store i32 1, ptr %24, align 4
  br label %175

175:                                              ; preds = %172, %168, %132, %125
  call void @llvm.lifetime.end.p0(i64 8, ptr %23) #5
  call void @llvm.lifetime.end.p0(i64 4, ptr %22) #5
  call void @llvm.lifetime.end.p0(i64 8, ptr %21) #5
  call void @llvm.lifetime.end.p0(i64 4, ptr %20) #5
  call void @llvm.lifetime.end.p0(i64 4, ptr %19) #5
  call void @llvm.lifetime.end.p0(i64 8, ptr %18) #5
  %176 = load i32, ptr %9, align 4
  ret i32 %176
}