; Function Attrs: nounwind uwtable
define internal range(i32 -1, 2) i32 @cvBandSetup(ptr noundef %0, i32 noundef %1, ptr noundef %2, ptr noundef %3, ptr noundef writeonly captures(none) initializes((0, 4)) %4, ptr noundef %5, ptr noundef %6, ptr noundef %7) #0 {
  %9 = getelementptr inbounds nuw i8, ptr %0, i64 1696
  %10 = load ptr, ptr %9, align 8, !tbaa !40
  %11 = getelementptr inbounds nuw i8, ptr %0, i64 1272
  %12 = load double, ptr %11, align 8, !tbaa !44
  %13 = getelementptr inbounds nuw i8, ptr %0, i64 1280
  %14 = load double, ptr %13, align 8, !tbaa !45
  %15 = fdiv double %12, %14
  %16 = fadd double %15, -1.000000e+00
  %17 = tail call double @SUNRabs(double noundef %16) #7
  %18 = getelementptr inbounds nuw i8, ptr %0, i64 1432
  %19 = load i64, ptr %18, align 8, !tbaa !46
  %20 = icmp eq i64 %19, 0
  br i1 %20, label %.critedge, label %21

21:                                               ; preds = %8
  %22 = getelementptr inbounds nuw i8, ptr %10, i64 104
  %23 = load i64, ptr %22, align 8, !tbaa !47
  %24 = add nsw i64 %23, 50
  %25 = icmp sgt i64 %19, %24
  br i1 %25, label %.critedge, label %26

26:                                               ; preds = %21
  %27 = icmp ne i32 %1, 1
  %28 = fcmp uge double %17, 2.000000e-01
  %or.cond.not = select i1 %27, i1 true, i1 %28
  %29 = icmp ne i32 %1, 2
  %spec.select = and i1 %29, %or.cond.not
  br i1 %spec.select, label %30, label %.critedge

30:                                               ; preds = %26
  store i32 0, ptr %4, align 4, !tbaa !48
  %31 = getelementptr inbounds nuw i8, ptr %10, i64 80
  %32 = load ptr, ptr %31, align 8, !tbaa !38
  %33 = getelementptr inbounds nuw i8, ptr %10, i64 72
  %34 = load ptr, ptr %33, align 8, !tbaa !37
  %35 = getelementptr inbounds nuw i8, ptr %10, i64 24
  %36 = load i64, ptr %35, align 8, !tbaa !35
  %37 = getelementptr inbounds nuw i8, ptr %10, i64 16
  %38 = load i64, ptr %37, align 8, !tbaa !34
  tail call void @BandCopy(ptr noundef %32, ptr noundef %34, i64 noundef %36, i64 noundef %38) #7
  br label %71

.critedge:                                        ; preds = %21, %8, %26
  %39 = getelementptr inbounds nuw i8, ptr %10, i64 112
  %40 = load i64, ptr %39, align 8, !tbaa !49
  %41 = add nsw i64 %40, 1
  store i64 %41, ptr %39, align 8, !tbaa !49
  %42 = getelementptr inbounds nuw i8, ptr %10, i64 104
  store i64 %19, ptr %42, align 8, !tbaa !47
  store i32 1, ptr %4, align 4, !tbaa !48
  %43 = getelementptr inbounds nuw i8, ptr %10, i64 72
  %44 = load ptr, ptr %43, align 8, !tbaa !37
  tail call void @SetToZero(ptr noundef %44) #7
  %45 = getelementptr inbounds nuw i8, ptr %10, i64 56
  %46 = load ptr, ptr %45, align 8, !tbaa !41
  %47 = getelementptr inbounds nuw i8, ptr %10, i64 8
  %48 = load i64, ptr %47, align 8, !tbaa !33
  %49 = getelementptr inbounds nuw i8, ptr %10, i64 24
  %50 = load i64, ptr %49, align 8, !tbaa !35
  %51 = getelementptr inbounds nuw i8, ptr %10, i64 16
  %52 = load i64, ptr %51, align 8, !tbaa !34
  %53 = getelementptr inbounds nuw i8, ptr %0, i64 984
  %54 = load double, ptr %53, align 8, !tbaa !50
  %55 = load ptr, ptr %43, align 8, !tbaa !37
  %56 = getelementptr inbounds nuw i8, ptr %10, i64 64
  %57 = load ptr, ptr %56, align 8, !tbaa !43
  %58 = tail call i32 %46(i64 noundef %48, i64 noundef %50, i64 noundef %52, double noundef %54, ptr noundef %2, ptr noundef %3, ptr noundef %55, ptr noundef %57, ptr noundef %5, ptr noundef %6, ptr noundef %7) #7
  %59 = icmp slt i32 %58, 0
  br i1 %59, label %60, label %62

60:                                               ; preds = %.critedge
  tail call void (ptr, i32, ptr, ptr, ptr, ...) @cvProcessError(ptr noundef nonnull %0, i32 noundef -5, ptr noundef nonnull @.str, ptr noundef nonnull @.str.9, ptr noundef nonnull @.str.10) #7
  %61 = getelementptr inbounds nuw i8, ptr %10, i64 128
  store i64 -5, ptr %61, align 8, !tbaa !31
  br label %85

62:                                               ; preds = %.critedge
  %.not = icmp eq i32 %58, 0
  br i1 %.not, label %65, label %63

63:                                               ; preds = %62
  %64 = getelementptr inbounds nuw i8, ptr %10, i64 128
  store i64 -6, ptr %64, align 8, !tbaa !31
  br label %85

65:                                               ; preds = %62
  %66 = load ptr, ptr %43, align 8, !tbaa !37
  %67 = getelementptr inbounds nuw i8, ptr %10, i64 80
  %68 = load ptr, ptr %67, align 8, !tbaa !38
  %69 = load i64, ptr %49, align 8, !tbaa !35
  %70 = load i64, ptr %51, align 8, !tbaa !34
  tail call void @BandCopy(ptr noundef %66, ptr noundef %68, i64 noundef %69, i64 noundef %70) #7
  br label %71

71:                                               ; preds = %65, %30
  %72 = load double, ptr %11, align 8, !tbaa !44
  %73 = fneg double %72
  %74 = getelementptr inbounds nuw i8, ptr %10, i64 72
  %75 = load ptr, ptr %74, align 8, !tbaa !37
  tail call void @BandScale(double noundef %73, ptr noundef %75) #7
  %76 = load ptr, ptr %74, align 8, !tbaa !37
  tail call void @AddIdentity(ptr noundef %76) #7
  %77 = load ptr, ptr %74, align 8, !tbaa !37
  %78 = getelementptr inbounds nuw i8, ptr %10, i64 96
  %79 = load ptr, ptr %78, align 8, !tbaa !39
  %80 = tail call i64 @BandGBTRF(ptr noundef %77, ptr noundef %79) #7
  %81 = icmp sgt i64 %80, 0
  %82 = getelementptr inbounds nuw i8, ptr %10, i64 128
  br i1 %81, label %83, label %84

83:                                               ; preds = %71
  store i64 %80, ptr %82, align 8, !tbaa !31
  br label %85

84:                                               ; preds = %71
  store i64 0, ptr %82, align 8, !tbaa !31
  br label %85

85:                                               ; preds = %84, %83, %63, %60
  %.0 = phi i32 [ 1, %83 ], [ 0, %84 ], [ -1, %60 ], [ 1, %63 ]
  ret i32 %.0
}